; Function Attrs: mustprogress uwtable
define hidden void @_ZNK7datalog6matrix7displayERSo(ptr nocapture noundef nonnull readonly align 8 dereferenceable(24) %this, ptr noundef nonnull align 8 dereferenceable(8) %out) local_unnamed_addr #3 align 2 {
entry:
  %b = getelementptr inbounds i8, ptr %this, i64 8
  %eq = getelementptr inbounds i8, ptr %this, i64 16
  br label %for.cond

for.cond:                                         ; preds = %for.body, %entry
  %indvars.iv = phi i64 [ %indvars.iv.next, %for.body ], [ 0, %entry ]
  %0 = load ptr, ptr %this, align 8
  %cmp.i = icmp eq ptr %0, null
  br i1 %cmp.i, label %_ZNK6vectorIS_I8rationalLb1EjELb1EjE4sizeEv.exit, label %if.end.i

if.end.i:                                         ; preds = %for.cond
  %arrayidx.i = getelementptr inbounds i8, ptr %0, i64 -4
  %1 = load i32, ptr %arrayidx.i, align 4
  br label %_ZNK6vectorIS_I8rationalLb1EjELb1EjE4sizeEv.exit

_ZNK6vectorIS_I8rationalLb1EjELb1EjE4sizeEv.exit: ; preds = %for.cond, %if.end.i
  %retval.0.i = phi i32 [ %1, %if.end.i ], [ 0, %for.cond ]
  %2 = zext i32 %retval.0.i to i64
  %cmp = icmp ult i64 %indvars.iv, %2
  br i1 %cmp, label %for.body, label %for.end

for.body:                                         ; preds = %_ZNK6vectorIS_I8rationalLb1EjELb1EjE4sizeEv.exit
  %arrayidx.i5 = getelementptr inbounds %class.vector.163, ptr %0, i64 %indvars.iv
  %3 = load ptr, ptr %b, align 8
  %arrayidx.i7 = getelementptr inbounds %class.rational, ptr %3, i64 %indvars.iv
  %4 = load ptr, ptr %eq, align 8
  %arrayidx.i9 = getelementptr inbounds i8, ptr %4, i64 %indvars.iv
  %5 = load i8, ptr %arrayidx.i9, align 1
  %6 = and i8 %5, 1
  %tobool = icmp ne i8 %6, 0
  tail call void @_ZN7datalog6matrix11display_rowERSoRK6vectorI8rationalLb1EjERKS3_b(ptr noundef nonnull align 8 dereferenceable(8) %out, ptr noundef nonnull align 8 dereferenceable(8) %arrayidx.i5, ptr noundef nonnull align 8 dereferenceable(32) %arrayidx.i7, i1 noundef zeroext %tobool)
  %indvars.iv.next = add nuw nsw i64 %indvars.iv, 1
  br label %for.cond, !llvm.loop !8

for.end:                                          ; preds = %_ZNK6vectorIS_I8rationalLb1EjELb1EjE4sizeEv.exit
  ret void
}